target datalayout = "e-m:e-p270:32:32-p271:32:32-p272:64:64-i64:64-i128:128-f80:128-n8:16:32:64-S128"
target triple = "x86_64-pc-linux-gnu"

%struct.H5P_genclass_t = type { ptr, ptr, i32, i64, i32, i32, i32, i8, i32, ptr, ptr, ptr, ptr, ptr, ptr, ptr }
%struct.H5P_genplist_t = type { ptr, i64, i64, i8, ptr, ptr }
%struct.H5P_iter_plist_ud_t = type { ptr, ptr, ptr, ptr, ptr, i32 }

@H5P_init_g = external global i8, align 1
@H5_libterm_g = external global i8, align 1
@.str.7 = private unnamed_addr constant [100 x i8] c"generated/home/dtcxzyw/WorkSpace/Projects/compilers/llvm-opt-benchmark/bench/hdf5/hdf5/src/H5Pint.c\00", align 1
@H5E_PLIST_g = external global i64, align 8
@H5E_CANTCREATE_g = external global i64, align 8
@.str.23 = private unnamed_addr constant [43 x i8] c"can't create skip list for seen properties\00", align 1
@__func__.H5P__iterate_plist = private unnamed_addr constant [19 x i8] c"H5P__iterate_plist\00", align 1

; Function Attrs: nounwind uwtable
define i32 @H5P__iterate_plist(ptr noundef %0, i1 noundef zeroext %1, ptr noundef %2, ptr noundef %3, ptr noundef %4) #0 {
  %6 = alloca ptr, align 8
  %7 = alloca i8, align 1
  %8 = alloca ptr, align 8
  %9 = alloca ptr, align 8
  %10 = alloca ptr, align 8
  %11 = alloca ptr, align 8
  %12 = alloca %struct.H5P_iter_plist_ud_t, align 8
  %13 = alloca ptr, align 8
  %14 = alloca i32, align 4
  %15 = alloca i32, align 4
  %16 = alloca i8, align 1
  store ptr %0, ptr %6, align 8, !tbaa !59
  %17 = zext i1 %1 to i8
  store i8 %17, ptr %7, align 1, !tbaa !7
  store ptr %2, ptr %8, align 8, !tbaa !113
  store ptr %3, ptr %9, align 8, !tbaa !40
  store ptr %4, ptr %10, align 8, !tbaa !40
  call void @llvm.lifetime.start.p0(i64 8, ptr %11) #8
  call void @llvm.lifetime.start.p0(i64 48, ptr %12) #8
  call void @llvm.lifetime.start.p0(i64 8, ptr %13) #8
  store ptr null, ptr %13, align 8, !tbaa !77
  call void @llvm.lifetime.start.p0(i64 4, ptr %14) #8
  store i32 0, ptr %14, align 4, !tbaa !3
  call void @llvm.lifetime.start.p0(i64 4, ptr %15) #8
  store i32 0, ptr %15, align 4, !tbaa !3
  call void @llvm.lifetime.start.p0(i64 1, ptr %16) #8
  store i8 0, ptr %16, align 1, !tbaa !7
  %18 = load i8, ptr @H5P_init_g, align 1, !tbaa !7, !range !9, !noundef !10
  %19 = trunc i8 %18 to i1
  br i1 %19, label %24, label %20

20:                                               ; preds = %5
  %21 = load i8, ptr @H5_libterm_g, align 1, !tbaa !7, !range !9, !noundef !10
  %22 = trunc i8 %21 to i1
  %23 = xor i1 %22, true
  br label %24

24:                                               ; preds = %20, %5
  %25 = phi i1 [ true, %5 ], [ %23, %20 ]
  %26 = xor i1 %25, true
  %27 = xor i1 %26, true
  %28 = zext i1 %27 to i32
  %29 = sext i32 %28 to i64
  %30 = call i64 @llvm.expect.i64(i64 %29, i64 1)
  %31 = icmp ne i64 %30, 0
  br i1 %31, label %32, label %115

32:                                               ; preds = %24
  %33 = call ptr @H5SL_create(i32 noundef 2, ptr noundef null)
  store ptr %33, ptr %13, align 8, !tbaa !77
  %34 = icmp eq ptr null, %33
  br i1 %34, label %35, label %54

35:                                               ; preds = %32
  br label %36

36:                                               ; preds = %35
  br label %37

37:                                               ; preds = %36
  br label %38

38:                                               ; preds = %37
  %39 = load i64, ptr @H5E_PLIST_g, align 8, !tbaa !11
  %40 = load i64, ptr @H5E_CANTCREATE_g, align 8, !tbaa !11
  %41 = call i32 (ptr, ptr, i32, i64, i64, ptr, ...) @H5E_printf_stack(ptr noundef @.str.7, ptr noundef @__func__.H5P__iterate_plist, i32 noundef 4410, i64 noundef %39, i64 noundef %40, ptr noundef @.str.23)
  br label %42

42:                                               ; preds = %38
  br label %43

43:                                               ; preds = %42
  store i8 1, ptr %16, align 1, !tbaa !7
  %44 = load i8, ptr %16, align 1, !tbaa !7, !range !9, !noundef !10
  %45 = trunc i8 %44 to i1
  %46 = zext i1 %45 to i8
  store i8 %46, ptr %16, align 1, !tbaa !7
  br label %47

47:                                               ; preds = %43
  br label %48

48:                                               ; preds = %47
  br label %49

49:                                               ; preds = %48
  store i32 -1, ptr %15, align 4, !tbaa !3
  br label %106

50:                                               ; No predecessors!
  br label %51

51:                                               ; preds = %50
  br label %52

52:                                               ; preds = %51
  br label %53

53:                                               ; preds = %52
  br label %54

54:                                               ; preds = %53, %32
  %55 = load ptr, ptr %6, align 8, !tbaa !59
  %56 = getelementptr inbounds nuw %struct.H5P_iter_plist_ud_t, ptr %12, i32 0, i32 2
  store ptr %55, ptr %56, align 8, !tbaa !118
  %57 = load ptr, ptr %9, align 8, !tbaa !40
  %58 = getelementptr inbounds nuw %struct.H5P_iter_plist_ud_t, ptr %12, i32 0, i32 0
  store ptr %57, ptr %58, align 8, !tbaa !120
  %59 = load ptr, ptr %10, align 8, !tbaa !40
  %60 = getelementptr inbounds nuw %struct.H5P_iter_plist_ud_t, ptr %12, i32 0, i32 1
  store ptr %59, ptr %60, align 8, !tbaa !121
  %61 = load ptr, ptr %13, align 8, !tbaa !77
  %62 = getelementptr inbounds nuw %struct.H5P_iter_plist_ud_t, ptr %12, i32 0, i32 3
  store ptr %61, ptr %62, align 8, !tbaa !122
  %63 = getelementptr inbounds nuw %struct.H5P_iter_plist_ud_t, ptr %12, i32 0, i32 4
  store ptr %14, ptr %63, align 8, !tbaa !123
  %64 = load ptr, ptr %8, align 8, !tbaa !113
  %65 = load i32, ptr %64, align 4, !tbaa !3
  %66 = getelementptr inbounds nuw %struct.H5P_iter_plist_ud_t, ptr %12, i32 0, i32 5
  store i32 %65, ptr %66, align 8, !tbaa !124
  %67 = load ptr, ptr %6, align 8, !tbaa !59
  %68 = getelementptr inbounds nuw %struct.H5P_genplist_t, ptr %67, i32 0, i32 5
  %69 = load ptr, ptr %68, align 8, !tbaa !79
  %70 = call i32 @H5SL_iterate(ptr noundef %69, ptr noundef @H5P__iterate_plist_cb, ptr noundef %12)
  store i32 %70, ptr %15, align 4, !tbaa !3
  %71 = load i32, ptr %15, align 4, !tbaa !3
  %72 = icmp ne i32 %71, 0
  br i1 %72, label %73, label %78

73:                                               ; preds = %54
  br label %74

74:                                               ; preds = %73
  %75 = load i32, ptr %15, align 4, !tbaa !3
  store i32 %75, ptr %15, align 4, !tbaa !3
  br label %106

76:                                               ; No predecessors!
  br label %77

77:                                               ; preds = %76
  br label %78

78:                                               ; preds = %77, %54
  %79 = load i8, ptr %7, align 1, !tbaa !7, !range !9, !noundef !10
  %80 = trunc i8 %79 to i1
  br i1 %80, label %81, label %105

81:                                               ; preds = %78
  %82 = load ptr, ptr %6, align 8, !tbaa !59
  %83 = getelementptr inbounds nuw %struct.H5P_genplist_t, ptr %82, i32 0, i32 0
  %84 = load ptr, ptr %83, align 8, !tbaa !63
  store ptr %84, ptr %11, align 8, !tbaa !22
  br label %85

85:                                               ; preds = %100, %81
  %86 = load ptr, ptr %11, align 8, !tbaa !22
  %87 = icmp ne ptr %86, null
  br i1 %87, label %88, label %104

88:                                               ; preds = %85
  %89 = load ptr, ptr %11, align 8, !tbaa !22
  %90 = getelementptr inbounds nuw %struct.H5P_genclass_t, ptr %89, i32 0, i32 9
  %91 = load ptr, ptr %90, align 8, !tbaa !52
  %92 = call i32 @H5SL_iterate(ptr noundef %91, ptr noundef @H5P__iterate_plist_pclass_cb, ptr noundef %12)
  store i32 %92, ptr %15, align 4, !tbaa !3
  %93 = load i32, ptr %15, align 4, !tbaa !3
  %94 = icmp ne i32 %93, 0
  br i1 %94, label %95, label %100

95:                                               ; preds = %88
  br label %96

96:                                               ; preds = %95
  %97 = load i32, ptr %15, align 4, !tbaa !3
  store i32 %97, ptr %15, align 4, !tbaa !3
  br label %106

98:                                               ; No predecessors!
  br label %99

99:                                               ; preds = %98
  br label %100

100:                                              ; preds = %99, %88
  %101 = load ptr, ptr %11, align 8, !tbaa !22
  %102 = getelementptr inbounds nuw %struct.H5P_genclass_t, ptr %101, i32 0, i32 0
  %103 = load ptr, ptr %102, align 8, !tbaa !41
  store ptr %103, ptr %11, align 8, !tbaa !22
  br label %85, !llvm.loop !125

104:                                              ; preds = %85
  br label %105

105:                                              ; preds = %104, %78
  br label %106

106:                                              ; preds = %105, %96, %74, %49
  %107 = load i32, ptr %14, align 4, !tbaa !3
  %108 = load ptr, ptr %8, align 8, !tbaa !113
  store i32 %107, ptr %108, align 4, !tbaa !3
  %109 = load ptr, ptr %13, align 8, !tbaa !77
  %110 = icmp ne ptr %109, null
  br i1 %110, label %111, label %114

111:                                              ; preds = %106
  %112 = load ptr, ptr %13, align 8, !tbaa !77
  %113 = call i32 @H5SL_close(ptr noundef %112)
  br label %114

114:                                              ; preds = %111, %106
  br label %115

115:                                              ; preds = %114, %24
  %116 = load i32, ptr %15, align 4, !tbaa !3
  call void @llvm.lifetime.end.p0(i64 1, ptr %16) #8
  call void @llvm.lifetime.end.p0(i64 4, ptr %15) #8
  call void @llvm.lifetime.end.p0(i64 4, ptr %14) #8
  call void @llvm.lifetime.end.p0(i64 8, ptr %13) #8
  call void @llvm.lifetime.end.p0(i64 48, ptr %12) #8
  call void @llvm.lifetime.end.p0(i64 8, ptr %11) #8
  ret i32 %116
}