; Function Attrs: nounwind uwtable
define i32 @H5P__iterate_plist(ptr noundef %0, i1 noundef zeroext %1, ptr noundef captures(none) %2, ptr noundef %3, ptr noundef %4) local_unnamed_addr #0 {
  %6 = alloca %struct.H5P_iter_plist_ud_t, align 8
  %7 = alloca i32, align 4
  call void @llvm.lifetime.start.p0(i64 48, ptr nonnull %6) #14
  call void @llvm.lifetime.start.p0(i64 4, ptr nonnull %7) #14
  store i32 0, ptr %7, align 4, !tbaa !45
  %8 = load i8, ptr @H5P_init_g, align 1, !tbaa !3, !range !7, !noundef !8
  %9 = trunc nuw i8 %8 to i1
  %10 = load i8, ptr @H5_libterm_g, align 1, !range !7
  %11 = trunc nuw i8 %10 to i1
  %12 = xor i1 %11, true
  %13 = select i1 %9, i1 true, i1 %12
  br i1 %13, label %14, label %35, !prof !9

14:                                               ; preds = %5
  %15 = tail call ptr @H5SL_create(i32 noundef 2, ptr noundef null) #14
  %16 = icmp eq ptr %15, null
  br i1 %16, label %.thread, label %20

.thread:                                          ; preds = %14
  %17 = load i64, ptr @H5E_PLIST_g, align 8, !tbaa !10
  %18 = load i64, ptr @H5E_CANTCREATE_g, align 8, !tbaa !10
  %19 = tail call i32 (ptr, ptr, i32, i64, i64, ptr, ...) @H5E_printf_stack(ptr noundef nonnull @.str.7, ptr noundef nonnull @__func__.H5P__iterate_plist, i32 noundef 4410, i64 noundef %17, i64 noundef %18, ptr noundef nonnull @.str.23) #14
  store i32 0, ptr %2, align 4, !tbaa !45
  br label %35

20:                                               ; preds = %14
  %21 = getelementptr inbounds nuw i8, ptr %6, i64 16
  store ptr %0, ptr %21, align 8, !tbaa !105
  store ptr %3, ptr %6, align 8, !tbaa !108
  %22 = getelementptr inbounds nuw i8, ptr %6, i64 8
  store ptr %4, ptr %22, align 8, !tbaa !109
  %23 = getelementptr inbounds nuw i8, ptr %6, i64 24
  store ptr %15, ptr %23, align 8, !tbaa !110
  %24 = getelementptr inbounds nuw i8, ptr %6, i64 32
  store ptr %7, ptr %24, align 8, !tbaa !111
  %25 = load i32, ptr %2, align 4, !tbaa !45
  %26 = getelementptr inbounds nuw i8, ptr %6, i64 40
  store i32 %25, ptr %26, align 8, !tbaa !112
  %27 = getelementptr inbounds nuw i8, ptr %0, i64 40
  %28 = load ptr, ptr %27, align 8, !tbaa !58
  %29 = call i32 @H5SL_iterate(ptr noundef %28, ptr noundef nonnull @H5P__iterate_plist_cb, ptr noundef nonnull %6) #14
  %.not = icmp eq i32 %29, 0
  %brmerge.not = and i1 %1, %.not
  br i1 %brmerge.not, label %.preheader, label %.thread31

.preheader:                                       ; preds = %20, %30
  %.019.in = phi ptr [ %.019, %30 ], [ %0, %20 ]
  %.019 = load ptr, ptr %.019.in, align 8, !tbaa !22
  %.not26 = icmp eq ptr %.019, null
  br i1 %.not26, label %.thread31, label %30

30:                                               ; preds = %.preheader
  %31 = getelementptr inbounds nuw i8, ptr %.019, i64 56
  %32 = load ptr, ptr %31, align 8, !tbaa !47
  %33 = call i32 @H5SL_iterate(ptr noundef %32, ptr noundef nonnull @H5P__iterate_plist_pclass_cb, ptr noundef nonnull %6) #14
  %.not27 = icmp eq i32 %33, 0
  br i1 %.not27, label %.preheader, label %.thread31, !llvm.loop !113

.thread31:                                        ; preds = %.preheader, %30, %20
  %.133 = phi i32 [ %29, %20 ], [ %33, %30 ], [ 0, %.preheader ]
  %storemerge = load i32, ptr %7, align 4, !tbaa !45
  store i32 %storemerge, ptr %2, align 4, !tbaa !45
  %34 = call i32 @H5SL_close(ptr noundef nonnull %15) #14
  br label %35

35:                                               ; preds = %.thread, %.thread31, %5
  %.0 = phi i32 [ %.133, %.thread31 ], [ 0, %5 ], [ -1, %.thread ]
  call void @llvm.lifetime.end.p0(i64 4, ptr nonnull %7) #14
  call void @llvm.lifetime.end.p0(i64 48, ptr nonnull %6) #14
  ret i32 %.0
}